; Function Attrs: nounwind uwtable
define internal range(i32 -1, 1) i32 @H5D__farray_idx_dest(ptr nocapture noundef readonly %0) #1 {
  %2 = getelementptr inbounds i8, ptr %0, i64 24
  %3 = load ptr, ptr %2, align 8
  %4 = getelementptr inbounds i8, ptr %3, i64 32
  %5 = load ptr, ptr %4, align 8
  %.not = icmp eq ptr %5, null
  br i1 %.not, label %29, label %6

6:                                                ; preds = %1
  %7 = load ptr, ptr %0, align 8
  %8 = tail call i32 @H5FA_patch_file(ptr noundef nonnull %5, ptr noundef %7) #11
  %9 = icmp slt i32 %8, 0
  br i1 %9, label %10, label %14

10:                                               ; preds = %6
  %11 = load i64, ptr @H5E_DATASET_g, align 8
  %12 = load i64, ptr @H5E_CANTOPENOBJ_g, align 8
  %13 = tail call i32 (ptr, ptr, i32, i64, i64, ptr, ...) @H5E_printf_stack(ptr noundef nonnull @.str.2, ptr noundef nonnull @__func__.H5D__farray_idx_dest, i32 noundef 1640, i64 noundef %11, i64 noundef %12, ptr noundef nonnull @.str.32) #11
  br label %29

14:                                               ; preds = %6
  %15 = load ptr, ptr %2, align 8
  %16 = getelementptr inbounds i8, ptr %15, i64 32
  %17 = load ptr, ptr %16, align 8
  %18 = tail call i32 @H5FA_close(ptr noundef %17) #11
  %19 = icmp slt i32 %18, 0
  br i1 %19, label %22, label %H5D__farray_idx_close.exit

H5D__farray_idx_close.exit:                       ; preds = %14
  %20 = load ptr, ptr %2, align 8
  %21 = getelementptr inbounds i8, ptr %20, i64 32
  store ptr null, ptr %21, align 8
  br label %29

22:                                               ; preds = %14
  %23 = load i64, ptr @H5E_DATASET_g, align 8
  %24 = load i64, ptr @H5E_CANTCLOSEOBJ_g, align 8
  %25 = tail call i32 (ptr, ptr, i32, i64, i64, ptr, ...) @H5E_printf_stack(ptr noundef nonnull @.str.2, ptr noundef nonnull @__func__.H5D__farray_idx_close, i32 noundef 888, i64 noundef %23, i64 noundef %24, ptr noundef nonnull @.str.21) #11
  %26 = load i64, ptr @H5E_DATASET_g, align 8
  %27 = load i64, ptr @H5E_CANTCLOSEOBJ_g, align 8
  %28 = tail call i32 (ptr, ptr, i32, i64, i64, ptr, ...) @H5E_printf_stack(ptr noundef nonnull @.str.2, ptr noundef nonnull @__func__.H5D__farray_idx_dest, i32 noundef 1644, i64 noundef %26, i64 noundef %27, ptr noundef nonnull @.str.21) #11
  br label %29

29:                                               ; preds = %H5D__farray_idx_close.exit, %1, %22, %10
  %.0 = phi i32 [ -1, %10 ], [ -1, %22 ], [ 0, %H5D__farray_idx_close.exit ], [ 0, %1 ]
  ret i32 %.0
}